; Function Attrs: nounwind uwtable
define range(i32 0, 2) i32 @test_BN_eq(ptr noundef %0, i32 noundef %1, ptr noundef %2, ptr noundef %3, ptr noundef %4, ptr noundef %5) local_unnamed_addr #0 {
  %7 = tail call i32 @BN_cmp(ptr noundef %4, ptr noundef %5) #8
  %8 = icmp eq i32 %7, 0
  br i1 %8, label %10, label %9

9:                                                ; preds = %6
  tail call void @test_fail_bignum_message(ptr noundef null, ptr noundef %0, i32 noundef %1, ptr noundef nonnull @.str.46, ptr noundef %2, ptr noundef %3, ptr noundef nonnull @.str.12, ptr noundef %4, ptr noundef %5) #8
  br label %10

10:                                               ; preds = %6, %9
  %.0 = phi i32 [ 0, %9 ], [ 1, %6 ]
  ret i32 %.0
}